target datalayout = "e-m:e-p270:32:32-p271:32:32-p272:64:64-i64:64-i128:128-f80:128-n8:16:32:64-S128"
target triple = "x86_64-pc-linux-gnu"

%struct.GinState = type { ptr, i8, ptr, [32 x ptr], [32 x %struct.FmgrInfo], [32 x %struct.FmgrInfo], [32 x %struct.FmgrInfo], [32 x %struct.FmgrInfo], [32 x %struct.FmgrInfo], [32 x %struct.FmgrInfo], [32 x i8], [32 x i32] }
%struct.FmgrInfo = type { ptr, i32, i16, i8, i8, i8, ptr, ptr, ptr }
%struct.TupleDescData = type { i32, i32, i32, i32, ptr, [0 x %struct.CompactAttribute] }
%struct.CompactAttribute = type { i32, i16, i8, i8, i8, i8, i8, i8, i8 }
%struct.IndexTupleData = type { %struct.ItemPointerData, i16 }
%struct.ItemPointerData = type { %struct.BlockIdData, i16 }
%struct.BlockIdData = type { i16, i16 }

@.str.5 = private unnamed_addr constant [29 x i8] c"unsupported byval length: %d\00", align 1
@.str.6 = private unnamed_addr constant [41 x i8] c"../../../../src/include/access/tupmacs.h\00", align 1
@__func__.fetch_att = private unnamed_addr constant [10 x i8] c"fetch_att\00", align 1

; Function Attrs: inlinehint nounwind uwtable
define internal i64 @PointerGetDatum(ptr noundef %0) #2 {
  %2 = alloca ptr, align 8
  store ptr %0, ptr %2, align 8
  %3 = load ptr, ptr %2, align 8
  %4 = ptrtoint ptr %3 to i64
  ret i64 %4
}

; Function Attrs: inlinehint nounwind uwtable
define internal i64 @Int32GetDatum(i32 noundef %0) #2 {
  %2 = alloca i32, align 4
  store i32 %0, ptr %2, align 4
  %3 = load i32, ptr %2, align 4
  %4 = sext i32 %3 to i64
  ret i64 %4
}

; Function Attrs: inlinehint nounwind uwtable
define internal i64 @Int16GetDatum(i16 noundef signext %0) #2 {
  %2 = alloca i16, align 2
  store i16 %0, ptr %2, align 2
  %3 = load i16, ptr %2, align 2
  %4 = sext i16 %3 to i64
  ret i64 %4
}

; Function Attrs: inlinehint nounwind uwtable
define internal i64 @CharGetDatum(i8 noundef signext %0) #2 {
  %2 = alloca i8, align 1
  store i8 %0, ptr %2, align 1
  %3 = load i8, ptr %2, align 1
  %4 = sext i8 %3 to i64
  ret i64 %4
}

; Function Attrs: inlinehint nounwind uwtable
define internal zeroext i1 @att_isnull(i32 noundef %0, ptr noundef %1) #2 {
  %3 = alloca i32, align 4
  %4 = alloca ptr, align 8
  store i32 %0, ptr %3, align 4
  store ptr %1, ptr %4, align 8
  %5 = load ptr, ptr %4, align 8
  %6 = load i32, ptr %3, align 4
  %7 = ashr i32 %6, 3
  %8 = sext i32 %7 to i64
  %9 = getelementptr inbounds i8, ptr %5, i64 %8
  %10 = load i8, ptr %9, align 1
  %11 = zext i8 %10 to i32
  %12 = load i32, ptr %3, align 4
  %13 = and i32 %12, 7
  %14 = shl i32 1, %13
  %15 = and i32 %11, %14
  %16 = icmp ne i32 %15, 0
  %17 = xor i1 %16, true
  ret i1 %17
}

; Function Attrs: inlinehint nounwind uwtable
define internal i64 @fetch_att(ptr noundef %0, i1 noundef zeroext %1, i32 noundef %2) #2 {
  %4 = alloca i64, align 8
  %5 = alloca ptr, align 8
  %6 = alloca i8, align 1
  %7 = alloca i32, align 4
  store ptr %0, ptr %5, align 8
  %8 = zext i1 %1 to i8
  store i8 %8, ptr %6, align 1
  store i32 %2, ptr %7, align 4
  %9 = load i8, ptr %6, align 1, !range !4, !noundef !5
  %10 = trunc i8 %9 to i1
  br i1 %10, label %11, label %39

11:                                               ; preds = %3
  %12 = load i32, ptr %7, align 4
  switch i32 %12, label %28 [
    i32 1, label %13
    i32 2, label %17
    i32 4, label %21
    i32 8, label %25
  ]

13:                                               ; preds = %11
  %14 = load ptr, ptr %5, align 8
  %15 = load i8, ptr %14, align 1
  %16 = call i64 @CharGetDatum(i8 noundef signext %15)
  store i64 %16, ptr %4, align 8
  br label %42

17:                                               ; preds = %11
  %18 = load ptr, ptr %5, align 8
  %19 = load i16, ptr %18, align 2
  %20 = call i64 @Int16GetDatum(i16 noundef signext %19)
  store i64 %20, ptr %4, align 8
  br label %42

21:                                               ; preds = %11
  %22 = load ptr, ptr %5, align 8
  %23 = load i32, ptr %22, align 4
  %24 = call i64 @Int32GetDatum(i32 noundef %23)
  store i64 %24, ptr %4, align 8
  br label %42

25:                                               ; preds = %11
  %26 = load ptr, ptr %5, align 8
  %27 = load i64, ptr %26, align 8
  store i64 %27, ptr %4, align 8
  br label %42

28:                                               ; preds = %11
  br label %29

29:                                               ; preds = %28
  br i1 true, label %30, label %32

30:                                               ; preds = %29
  %31 = call zeroext i1 @errstart_cold(i32 noundef 21, ptr noundef null) #8
  br i1 %31, label %34, label %37

32:                                               ; preds = %29
  %33 = call zeroext i1 @errstart(i32 noundef 21, ptr noundef null)
  br i1 %33, label %34, label %37

34:                                               ; preds = %32, %30
  %35 = load i32, ptr %7, align 4
  %36 = call i32 (ptr, ...) @errmsg_internal(ptr noundef @.str.5, i32 noundef %35)
  call void @errfinish(ptr noundef @.str.6, i32 noundef 70, ptr noundef @__func__.fetch_att)
  br label %37

37:                                               ; preds = %34, %32, %30
  unreachable

38:                                               ; No predecessors!
  store i64 0, ptr %4, align 8
  br label %42

39:                                               ; preds = %3
  %40 = load ptr, ptr %5, align 8
  %41 = call i64 @PointerGetDatum(ptr noundef %40)
  store i64 %41, ptr %4, align 8
  br label %42

42:                                               ; preds = %39, %38, %25, %21, %17, %13
  %43 = load i64, ptr %4, align 8
  ret i64 %43
}

; Function Attrs: inlinehint nounwind uwtable
define internal ptr @TupleDescCompactAttr(ptr noundef %0, i32 noundef %1) #2 {
  %3 = alloca ptr, align 8
  %4 = alloca i32, align 4
  %5 = alloca ptr, align 8
  store ptr %0, ptr %3, align 8
  store i32 %1, ptr %4, align 4
  call void @llvm.lifetime.start.p0(i64 8, ptr %5) #7
  %6 = load ptr, ptr %3, align 8
  %7 = getelementptr inbounds nuw %struct.TupleDescData, ptr %6, i32 0, i32 5
  %8 = load i32, ptr %4, align 4
  %9 = sext i32 %8 to i64
  %10 = getelementptr inbounds [0 x %struct.CompactAttribute], ptr %7, i64 0, i64 %9
  store ptr %10, ptr %5, align 8
  %11 = load ptr, ptr %5, align 8
  call void @llvm.lifetime.end.p0(i64 8, ptr %5) #7
  ret ptr %11
}

; Function Attrs: inlinehint nounwind uwtable
define internal zeroext i1 @IndexTupleHasNulls(ptr noundef %0) #2 {
  %2 = alloca ptr, align 8
  store ptr %0, ptr %2, align 8
  %3 = load ptr, ptr %2, align 8
  %4 = getelementptr inbounds nuw %struct.IndexTupleData, ptr %3, i32 0, i32 1
  %5 = load i16, ptr %4, align 2
  %6 = zext i16 %5 to i32
  %7 = and i32 %6, 32768
  %8 = icmp ne i32 %7, 0
  ret i1 %8
}

; Function Attrs: inlinehint nounwind uwtable
define internal i64 @IndexInfoFindDataOffset(i16 noundef zeroext %0) #2 {
  %2 = alloca i64, align 8
  %3 = alloca i16, align 2
  store i16 %0, ptr %3, align 2
  %4 = load i16, ptr %3, align 2
  %5 = zext i16 %4 to i32
  %6 = and i32 %5, 32768
  %7 = icmp ne i32 %6, 0
  br i1 %7, label %9, label %8

8:                                                ; preds = %1
  store i64 8, ptr %2, align 8
  br label %10

9:                                                ; preds = %1
  store i64 16, ptr %2, align 8
  br label %10

10:                                               ; preds = %9, %8
  %11 = load i64, ptr %2, align 8
  ret i64 %11
}

; Function Attrs: inlinehint nounwind uwtable
define internal i64 @index_getattr(ptr noundef %0, i32 noundef %1, ptr noundef %2, ptr noundef %3) #2 {
  %5 = alloca i64, align 8
  %6 = alloca ptr, align 8
  %7 = alloca i32, align 4
  %8 = alloca ptr, align 8
  %9 = alloca ptr, align 8
  %10 = alloca ptr, align 8
  %11 = alloca i32, align 4
  store ptr %0, ptr %6, align 8
  store i32 %1, ptr %7, align 4
  store ptr %2, ptr %8, align 8
  store ptr %3, ptr %9, align 8
  %12 = load ptr, ptr %9, align 8
  store i8 0, ptr %12, align 1
  %13 = load ptr, ptr %6, align 8
  %14 = call zeroext i1 @IndexTupleHasNulls(ptr noundef %13)
  br i1 %14, label %51, label %15

15:                                               ; preds = %4
  call void @llvm.lifetime.start.p0(i64 8, ptr %10) #7
  %16 = load ptr, ptr %8, align 8
  %17 = load i32, ptr %7, align 4
  %18 = sub i32 %17, 1
  %19 = call ptr @TupleDescCompactAttr(ptr noundef %16, i32 noundef %18)
  store ptr %19, ptr %10, align 8
  %20 = load ptr, ptr %10, align 8
  %21 = getelementptr inbounds nuw %struct.CompactAttribute, ptr %20, i32 0, i32 0
  %22 = load i32, ptr %21, align 4
  %23 = icmp sge i32 %22, 0
  br i1 %23, label %24, label %45

24:                                               ; preds = %15
  %25 = load ptr, ptr %6, align 8
  %26 = load ptr, ptr %6, align 8
  %27 = getelementptr inbounds nuw %struct.IndexTupleData, ptr %26, i32 0, i32 1
  %28 = load i16, ptr %27, align 2
  %29 = call i64 @IndexInfoFindDataOffset(i16 noundef zeroext %28)
  %30 = getelementptr inbounds nuw i8, ptr %25, i64 %29
  %31 = load ptr, ptr %10, align 8
  %32 = getelementptr inbounds nuw %struct.CompactAttribute, ptr %31, i32 0, i32 0
  %33 = load i32, ptr %32, align 4
  %34 = sext i32 %33 to i64
  %35 = getelementptr inbounds i8, ptr %30, i64 %34
  %36 = load ptr, ptr %10, align 8
  %37 = getelementptr inbounds nuw %struct.CompactAttribute, ptr %36, i32 0, i32 2
  %38 = load i8, ptr %37, align 2, !range !4, !noundef !5
  %39 = trunc i8 %38 to i1
  %40 = load ptr, ptr %10, align 8
  %41 = getelementptr inbounds nuw %struct.CompactAttribute, ptr %40, i32 0, i32 1
  %42 = load i16, ptr %41, align 4
  %43 = sext i16 %42 to i32
  %44 = call i64 @fetch_att(ptr noundef %35, i1 noundef zeroext %39, i32 noundef %43)
  store i64 %44, ptr %5, align 8
  store i32 1, ptr %11, align 4
  br label %50

45:                                               ; preds = %15
  %46 = load ptr, ptr %6, align 8
  %47 = load i32, ptr %7, align 4
  %48 = load ptr, ptr %8, align 8
  %49 = call i64 @nocache_index_getattr(ptr noundef %46, i32 noundef %47, ptr noundef %48)
  store i64 %49, ptr %5, align 8
  store i32 1, ptr %11, align 4
  br label %50

50:                                               ; preds = %45, %24
  call void @llvm.lifetime.end.p0(i64 8, ptr %10) #7
  br label %64

51:                                               ; preds = %4
  %52 = load i32, ptr %7, align 4
  %53 = sub i32 %52, 1
  %54 = load ptr, ptr %6, align 8
  %55 = getelementptr inbounds nuw i8, ptr %54, i64 8
  %56 = call zeroext i1 @att_isnull(i32 noundef %53, ptr noundef %55)
  br i1 %56, label %57, label %59

57:                                               ; preds = %51
  %58 = load ptr, ptr %9, align 8
  store i8 1, ptr %58, align 1
  store i64 0, ptr %5, align 8
  br label %64

59:                                               ; preds = %51
  %60 = load ptr, ptr %6, align 8
  %61 = load i32, ptr %7, align 4
  %62 = load ptr, ptr %8, align 8
  %63 = call i64 @nocache_index_getattr(ptr noundef %60, i32 noundef %61, ptr noundef %62)
  store i64 %63, ptr %5, align 8
  br label %64

64:                                               ; preds = %59, %57, %50
  %65 = load i64, ptr %5, align 8
  ret i64 %65
}

; Function Attrs: nounwind uwtable
define dso_local i64 @gintuple_get_key(ptr noundef %0, ptr noundef %1, ptr noundef %2) #0 {
  %4 = alloca ptr, align 8
  %5 = alloca ptr, align 8
  %6 = alloca ptr, align 8
  %7 = alloca i64, align 8
  %8 = alloca i8, align 1
  %9 = alloca i16, align 2
  store ptr %0, ptr %4, align 8
  store ptr %1, ptr %5, align 8
  store ptr %2, ptr %6, align 8
  call void @llvm.lifetime.start.p0(i64 8, ptr %7) #7
  call void @llvm.lifetime.start.p0(i64 1, ptr %8) #7
  %10 = load ptr, ptr %4, align 8
  %11 = getelementptr inbounds nuw %struct.GinState, ptr %10, i32 0, i32 1
  %12 = load i8, ptr %11, align 8, !range !4, !noundef !5
  %13 = trunc i8 %12 to i1
  br i1 %13, label %14, label %20

14:                                               ; preds = %3
  %15 = load ptr, ptr %5, align 8
  %16 = load ptr, ptr %4, align 8
  %17 = getelementptr inbounds nuw %struct.GinState, ptr %16, i32 0, i32 2
  %18 = load ptr, ptr %17, align 8
  %19 = call i64 @index_getattr(ptr noundef %15, i32 noundef 1, ptr noundef %18, ptr noundef %8)
  store i64 %19, ptr %7, align 8
  br label %34

20:                                               ; preds = %3
  call void @llvm.lifetime.start.p0(i64 2, ptr %9) #7
  %21 = load ptr, ptr %4, align 8
  %22 = load ptr, ptr %5, align 8
  %23 = call zeroext i16 @gintuple_get_attrnum(ptr noundef %21, ptr noundef %22)
  store i16 %23, ptr %9, align 2
  %24 = load ptr, ptr %5, align 8
  %25 = load ptr, ptr %4, align 8
  %26 = getelementptr inbounds nuw %struct.GinState, ptr %25, i32 0, i32 3
  %27 = load i16, ptr %9, align 2
  %28 = zext i16 %27 to i32
  %29 = sub i32 %28, 1
  %30 = sext i32 %29 to i64
  %31 = getelementptr inbounds [32 x ptr], ptr %26, i64 0, i64 %30
  %32 = load ptr, ptr %31, align 8
  %33 = call i64 @index_getattr(ptr noundef %24, i32 noundef 2, ptr noundef %32, ptr noundef %8)
  store i64 %33, ptr %7, align 8
  call void @llvm.lifetime.end.p0(i64 2, ptr %9) #7
  br label %34

34:                                               ; preds = %20, %14
  %35 = load i8, ptr %8, align 1, !range !4, !noundef !5
  %36 = trunc i8 %35 to i1
  br i1 %36, label %37, label %52

37:                                               ; preds = %34
  %38 = load ptr, ptr %5, align 8
  %39 = load ptr, ptr %5, align 8
  %40 = getelementptr inbounds nuw %struct.IndexTupleData, ptr %39, i32 0, i32 1
  %41 = load i16, ptr %40, align 2
  %42 = call i64 @IndexInfoFindDataOffset(i16 noundef zeroext %41)
  %43 = load ptr, ptr %4, align 8
  %44 = getelementptr inbounds nuw %struct.GinState, ptr %43, i32 0, i32 1
  %45 = load i8, ptr %44, align 8, !range !4, !noundef !5
  %46 = trunc i8 %45 to i1
  %47 = select i1 %46, i64 0, i64 2
  %48 = add i64 %42, %47
  %49 = getelementptr inbounds nuw i8, ptr %38, i64 %48
  %50 = load i8, ptr %49, align 1
  %51 = load ptr, ptr %6, align 8
  store i8 %50, ptr %51, align 1
  br label %54

52:                                               ; preds = %34
  %53 = load ptr, ptr %6, align 8
  store i8 0, ptr %53, align 1
  br label %54

54:                                               ; preds = %52, %37
  %55 = load i64, ptr %7, align 8
  call void @llvm.lifetime.end.p0(i64 1, ptr %8) #7
  call void @llvm.lifetime.end.p0(i64 8, ptr %7) #7
  ret i64 %55
}