; Function Attrs: nounwind uwtable
define dso_local i64 @gintuple_get_key(ptr noundef readonly captures(none) %0, ptr noundef %1, ptr noundef writeonly captures(none) %2) local_unnamed_addr #0 {
  %4 = getelementptr inbounds nuw i8, ptr %0, i64 8
  %5 = load i8, ptr %4, align 8, !range !4, !noundef !5
  %6 = trunc nuw i8 %5 to i1
  br i1 %6, label %7, label %50

7:                                                ; preds = %3
  %8 = getelementptr inbounds nuw i8, ptr %0, i64 16
  %9 = load ptr, ptr %8, align 8
  %10 = getelementptr i8, ptr %1, i64 6
  %.val.i = load i16, ptr %10, align 2
  %11 = icmp slt i16 %.val.i, 0
  br i1 %11, label %45, label %12

12:                                               ; preds = %7
  %13 = getelementptr inbounds nuw i8, ptr %9, i64 24
  %14 = load i32, ptr %13, align 4
  %15 = icmp sgt i32 %14, -1
  br i1 %15, label %16, label %43

16:                                               ; preds = %12
  %17 = getelementptr inbounds nuw i8, ptr %1, i64 8
  %18 = zext nneg i32 %14 to i64
  %19 = getelementptr inbounds nuw i8, ptr %17, i64 %18
  %20 = getelementptr inbounds nuw i8, ptr %9, i64 30
  %21 = load i8, ptr %20, align 2, !range !4, !noundef !5
  %22 = trunc nuw i8 %21 to i1
  %23 = getelementptr inbounds nuw i8, ptr %9, i64 28
  %24 = load i16, ptr %23, align 4
  br i1 %22, label %25, label %41

25:                                               ; preds = %16
  switch i16 %24, label %37 [
    i16 1, label %26
    i16 2, label %29
    i16 4, label %32
    i16 8, label %35
  ]

26:                                               ; preds = %25
  %27 = load i8, ptr %19, align 1
  %28 = sext i8 %27 to i64
  br label %index_getattr.exit.thread

29:                                               ; preds = %25
  %30 = load i16, ptr %19, align 2
  %31 = sext i16 %30 to i64
  br label %index_getattr.exit.thread

32:                                               ; preds = %25
  %33 = load i32, ptr %19, align 4
  %34 = sext i32 %33 to i64
  br label %index_getattr.exit.thread

35:                                               ; preds = %25
  %36 = load i64, ptr %19, align 8
  br label %index_getattr.exit.thread

37:                                               ; preds = %25
  %38 = sext i16 %24 to i32
  %39 = tail call zeroext i1 @errstart_cold(i32 noundef 21, ptr noundef null) #8
  tail call void @llvm.assume(i1 %39)
  %40 = tail call i32 (ptr, ...) @errmsg_internal(ptr noundef nonnull @.str.5, i32 noundef range(i32 -32768, 32768) %38) #7
  tail call void @errfinish(ptr noundef nonnull @.str.6, i32 noundef 70, ptr noundef nonnull @__func__.fetch_att) #7
  unreachable

41:                                               ; preds = %16
  %42 = ptrtoint ptr %19 to i64
  br label %index_getattr.exit.thread

43:                                               ; preds = %12
  %44 = tail call i64 @nocache_index_getattr(ptr noundef nonnull %1, i32 noundef 1, ptr noundef nonnull %9) #7
  br label %index_getattr.exit.thread

45:                                               ; preds = %7
  %46 = getelementptr inbounds nuw i8, ptr %1, i64 8
  %.val19.i = load i8, ptr %46, align 1
  %47 = and i8 %.val19.i, 1
  %.not.i20.i = icmp eq i8 %47, 0
  br i1 %.not.i20.i, label %index_getattr.exit, label %48

48:                                               ; preds = %45
  %49 = tail call i64 @nocache_index_getattr(ptr noundef nonnull %1, i32 noundef 1, ptr noundef %9) #7
  br label %index_getattr.exit.thread

50:                                               ; preds = %3
  %51 = tail call zeroext i16 @gintuple_get_attrnum(ptr noundef nonnull %0, ptr noundef %1)
  %52 = getelementptr inbounds nuw i8, ptr %0, i64 24
  %53 = zext i16 %51 to i64
  %54 = add nsw i64 %53, -1
  %55 = getelementptr inbounds [32 x ptr], ptr %52, i64 0, i64 %54
  %56 = load ptr, ptr %55, align 8
  %57 = getelementptr i8, ptr %1, i64 6
  %.val.i13 = load i16, ptr %57, align 2
  %58 = icmp slt i16 %.val.i13, 0
  br i1 %58, label %92, label %59

59:                                               ; preds = %50
  %60 = getelementptr inbounds nuw i8, ptr %56, i64 40
  %61 = load i32, ptr %60, align 4
  %62 = icmp sgt i32 %61, -1
  br i1 %62, label %63, label %90

63:                                               ; preds = %59
  %64 = getelementptr inbounds nuw i8, ptr %1, i64 8
  %65 = zext nneg i32 %61 to i64
  %66 = getelementptr inbounds nuw i8, ptr %64, i64 %65
  %67 = getelementptr inbounds nuw i8, ptr %56, i64 46
  %68 = load i8, ptr %67, align 2, !range !4, !noundef !5
  %69 = trunc nuw i8 %68 to i1
  %70 = getelementptr inbounds nuw i8, ptr %56, i64 44
  %71 = load i16, ptr %70, align 4
  br i1 %69, label %72, label %88

72:                                               ; preds = %63
  switch i16 %71, label %84 [
    i16 1, label %73
    i16 2, label %76
    i16 4, label %79
    i16 8, label %82
  ]

73:                                               ; preds = %72
  %74 = load i8, ptr %66, align 1
  %75 = sext i8 %74 to i64
  br label %index_getattr.exit.thread

76:                                               ; preds = %72
  %77 = load i16, ptr %66, align 2
  %78 = sext i16 %77 to i64
  br label %index_getattr.exit.thread

79:                                               ; preds = %72
  %80 = load i32, ptr %66, align 4
  %81 = sext i32 %80 to i64
  br label %index_getattr.exit.thread

82:                                               ; preds = %72
  %83 = load i64, ptr %66, align 8
  br label %index_getattr.exit.thread

84:                                               ; preds = %72
  %85 = sext i16 %71 to i32
  %86 = tail call zeroext i1 @errstart_cold(i32 noundef 21, ptr noundef null) #8
  tail call void @llvm.assume(i1 %86)
  %87 = tail call i32 (ptr, ...) @errmsg_internal(ptr noundef nonnull @.str.5, i32 noundef range(i32 -32768, 32768) %85) #7
  tail call void @errfinish(ptr noundef nonnull @.str.6, i32 noundef 70, ptr noundef nonnull @__func__.fetch_att) #7
  unreachable

88:                                               ; preds = %63
  %89 = ptrtoint ptr %66 to i64
  br label %index_getattr.exit.thread

90:                                               ; preds = %59
  %91 = tail call i64 @nocache_index_getattr(ptr noundef nonnull %1, i32 noundef 2, ptr noundef nonnull %56) #7
  br label %index_getattr.exit.thread

92:                                               ; preds = %50
  %93 = getelementptr inbounds nuw i8, ptr %1, i64 8
  %.val19.i15 = load i8, ptr %93, align 1
  %94 = and i8 %.val19.i15, 2
  %.not.i20.i16 = icmp eq i8 %94, 0
  br i1 %.not.i20.i16, label %.index_getattr.exit_crit_edge, label %96

.index_getattr.exit_crit_edge:                    ; preds = %92
  %.pre = load i8, ptr %4, align 8, !range !4
  %.pre22 = trunc nuw i8 %.pre to i1
  %95 = select i1 %.pre22, i64 0, i64 2
  br label %index_getattr.exit

96:                                               ; preds = %92
  %97 = tail call i64 @nocache_index_getattr(ptr noundef nonnull %1, i32 noundef 2, ptr noundef %56) #7
  br label %index_getattr.exit.thread

index_getattr.exit:                               ; preds = %.index_getattr.exit_crit_edge, %45
  %.pre-phi = phi i64 [ %95, %.index_getattr.exit_crit_edge ], [ 0, %45 ]
  %98 = getelementptr inbounds nuw i8, ptr %1, i64 16
  %99 = getelementptr inbounds nuw i8, ptr %98, i64 %.pre-phi
  %100 = load i8, ptr %99, align 1
  br label %index_getattr.exit.thread

index_getattr.exit.thread:                        ; preds = %90, %88, %73, %76, %79, %82, %96, %43, %41, %26, %29, %32, %35, %48, %index_getattr.exit
  %.021 = phi i64 [ 0, %index_getattr.exit ], [ %89, %88 ], [ %75, %73 ], [ %78, %76 ], [ %81, %79 ], [ %83, %82 ], [ %91, %90 ], [ %97, %96 ], [ %42, %41 ], [ %28, %26 ], [ %31, %29 ], [ %34, %32 ], [ %36, %35 ], [ %44, %43 ], [ %49, %48 ]
  %storemerge = phi i8 [ %100, %index_getattr.exit ], [ 0, %88 ], [ 0, %73 ], [ 0, %76 ], [ 0, %79 ], [ 0, %82 ], [ 0, %90 ], [ 0, %96 ], [ 0, %41 ], [ 0, %26 ], [ 0, %29 ], [ 0, %32 ], [ 0, %35 ], [ 0, %43 ], [ 0, %48 ]
  store i8 %storemerge, ptr %2, align 1
  ret i64 %.021
}